; Function Attrs: mustprogress nounwind uwtable
define dso_local noundef ptr @_ZN5clang19NestedNameSpecifier6CreateERKNS_10ASTContextEPS0_bPKNS_4TypeE(ptr noundef nonnull align 8 dereferenceable(23096) %0, ptr noundef %1, i1 noundef zeroext %2, ptr noundef %3) local_unnamed_addr #0 align 2 {
  %5 = alloca %"class.clang::NestedNameSpecifier", align 8
  store i64 0, ptr %5, align 8
  %6 = getelementptr inbounds nuw i8, ptr %5, i64 8
  %7 = ptrtoint ptr %1 to i64
  %8 = select i1 %2, i64 6, i64 4
  %.masked = and i64 %7, -7
  %9 = or disjoint i64 %8, %.masked
  store i64 %9, ptr %6, align 8
  %10 = getelementptr inbounds nuw i8, ptr %5, i64 16
  store ptr %3, ptr %10, align 8
  %11 = call noundef ptr @_ZN5clang19NestedNameSpecifier12FindOrInsertERKNS_10ASTContextERKS0_(ptr noundef nonnull align 8 dereferenceable(23096) %0, ptr noundef nonnull align 8 dereferenceable(24) %5)
  ret ptr %11
}